target datalayout = "e-m:e-p270:32:32-p271:32:32-p272:64:64-i64:64-i128:128-f80:128-n8:16:32:64-S128"
target triple = "x86_64-pc-linux-gnu"

%struct.optstruct = type { ptr, ptr, ptr, i64, i32, i32, i32, i32, ptr, ptr, ptr }
%struct.stat = type { i64, i64, i64, i32, i32, i32, i32, i64, i64, i64, i64, %struct.timespec, %struct.timespec, %struct.timespec, [3 x i64] }
%struct.timespec = type { i64, i64 }
%struct.cli_ctx_tag = type { ptr, ptr, ptr, ptr, ptr, ptr, ptr, i64, ptr, i32, i32, ptr, i32, i32, ptr, [16 x i8], ptr, ptr, ptr, ptr, ptr, ptr, %struct.timeval, i8, i8 }
%struct.timeval = type { i64, i64 }
%struct.cl_fmap = type { ptr, ptr, ptr, i64, i64, i64, i64, i8, i8, i8, i64, i64, i64, i64, ptr, ptr, ptr, ptr, ptr, ptr, ptr, i8, [16 x i8], i8, [20 x i8], i8, [32 x i8], ptr, ptr }
%struct.cl_scan_options = type { i32, i32, i32, i32, i32 }
%struct.cl_engine = type { i32, i32, i32, [2 x i32], i32, i32, i32, ptr, i32, i64, i32, i32, i64, i64, i32, i32, i32, i32, ptr, ptr, ptr, ptr, ptr, ptr, ptr, ptr, ptr, ptr, ptr, ptr, ptr, ptr, ptr, ptr, ptr, ptr, ptr, i64, ptr, %struct.crtmgr, ptr, ptr, ptr, ptr, ptr, ptr, ptr, ptr, ptr, ptr, ptr, ptr, ptr, ptr, ptr, ptr, ptr, %struct.cli_all_bc, [7 x ptr], [7 x i32], i32, i32, i32, i32, i64, i64, i64, i64, i64, ptr, ptr, ptr, ptr, ptr, ptr, ptr, ptr, ptr, i32, i32, i32, i64, i64, i64, ptr }
%struct.crtmgr = type { ptr, i32 }
%struct.cli_all_bc = type { ptr, i32, ptr, %struct.cli_environment, i32 }
%struct.cli_environment = type { i32, i32, i32, i32, i32, i32, i32, [65 x i8], [65 x i8], [65 x i8], [65 x i8], [65 x i8], [65 x i8], [65 x i8], i8, i8, i8, i8, i8, i8, i8, i8, i8 }
%struct.recursion_level_tag = type { i32, i64, ptr, i32, i32, i32, %struct.image_fuzzy_hash, i8 }
%struct.image_fuzzy_hash = type { [8 x i8] }

@.str.35 = private unnamed_addr constant [12 x i8] c"print-certs\00", align 1
@.str.113 = private unnamed_addr constant [5 x i8] c"test\00", align 1
@.str.114 = private unnamed_addr constant [9 x i8] c"deadbeef\00", align 1
@.str.115 = private unnamed_addr constant [2 x i8] c"*\00", align 1
@logg_file = external global ptr, align 8
@.str.499 = private unnamed_addr constant [25 x i8] c"dumpcerts: No filename!\0A\00", align 1
@.str.500 = private unnamed_addr constant [32 x i8] c"dumpcerts: Can't open file %s!\0A\00", align 1
@.str.501 = private unnamed_addr constant [44 x i8] c"dumpcerts: Can't create fmap for open file\0A\00", align 1
@.str.502 = private unnamed_addr constant [36 x i8] c"dumpcerts: Can't create new engine\0A\00", align 1
@.str.503 = private unnamed_addr constant [35 x i8] c"dumpcerts: cli_initroots() failed\0A\00", align 1
@.str.504 = private unnamed_addr constant [34 x i8] c"dumpcerts: Can't parse signature\0A\00", align 1
@.str.505 = private unnamed_addr constant [33 x i8] c"dumpcerts: Can't compile engine\0A\00", align 1
@.str.506 = private unnamed_addr constant [47 x i8] c"dumpcerts: No Authenticode signature detected\0A\00", align 1
@.str.507 = private unnamed_addr constant [52 x i8] c"dumpcerts: An error occurred when parsing the file\0A\00", align 1
@.str.508 = private unnamed_addr constant [57 x i8] c"dumpcerts: Other error %d inside cli_check_auth_header.\0A\00", align 1

; Function Attrs: nounwind uwtable
define internal void @funmap(ptr noundef %0) #0 {
  %2 = alloca ptr, align 8
  store ptr %0, ptr %2, align 8
  %3 = load ptr, ptr %2, align 8
  %4 = getelementptr inbounds %struct.cl_fmap, ptr %3, i32 0, i32 14
  %5 = load ptr, ptr %4, align 8
  %6 = load ptr, ptr %2, align 8
  call void %5(ptr noundef %6)
  ret void
}

; Function Attrs: nounwind uwtable
define internal i32 @dumpcerts(ptr noundef %0) #0 {
  %2 = alloca ptr, align 8
  %3 = alloca i32, align 4
  %4 = alloca ptr, align 8
  %5 = alloca %struct.stat, align 8
  %6 = alloca ptr, align 8
  %7 = alloca %struct.cli_ctx_tag, align 8
  %8 = alloca %struct.cl_scan_options, align 4
  %9 = alloca i32, align 4
  %10 = alloca ptr, align 8
  %11 = alloca i32, align 4
  store ptr %0, ptr %2, align 8
  store i32 -1, ptr %3, align 4
  store ptr null, ptr %4, align 8
  store ptr null, ptr %6, align 8
  call void @llvm.memset.p0.i64(ptr align 8 %7, i8 0, i64 192, i1 false)
  call void @llvm.memset.p0.i64(ptr align 4 %8, i8 0, i64 20, i1 false)
  store i32 -1, ptr %9, align 4
  store ptr null, ptr %10, align 8
  store ptr null, ptr @logg_file, align 8
  %12 = load ptr, ptr %2, align 8
  %13 = call ptr @optget(ptr noundef %12, ptr noundef @.str.35)
  %14 = getelementptr inbounds %struct.optstruct, ptr %13, i32 0, i32 2
  %15 = load ptr, ptr %14, align 8
  store ptr %15, ptr %4, align 8
  %16 = load ptr, ptr %4, align 8
  %17 = icmp ne ptr %16, null
  br i1 %17, label %19, label %18

18:                                               ; preds = %1
  call void (i32, ptr, ...) @mprintf(i32 noundef 5, ptr noundef @.str.499)
  br label %137

19:                                               ; preds = %1
  %20 = load ptr, ptr %4, align 8
  %21 = call i32 (ptr, i32, ...) @open(ptr noundef %20, i32 noundef 0)
  store i32 %21, ptr %9, align 4
  %22 = load i32, ptr %9, align 4
  %23 = icmp slt i32 %22, 0
  br i1 %23, label %24, label %26

24:                                               ; preds = %19
  %25 = load ptr, ptr %4, align 8
  call void (i32, ptr, ...) @mprintf(i32 noundef 5, ptr noundef @.str.500, ptr noundef %25)
  br label %137

26:                                               ; preds = %19
  %27 = load i32, ptr %9, align 4
  %28 = call i64 @lseek(i32 noundef %27, i64 noundef 0, i32 noundef 0) #11
  %29 = load i32, ptr %9, align 4
  %30 = call i32 @fstat(i32 noundef %29, ptr noundef %5) #11
  %31 = load i32, ptr %9, align 4
  %32 = getelementptr inbounds %struct.stat, ptr %5, i32 0, i32 8
  %33 = load i64, ptr %32, align 8
  %34 = load ptr, ptr %4, align 8
  %35 = call ptr @fmap(i32 noundef %31, i64 noundef 0, i64 noundef %33, ptr noundef %34)
  store ptr %35, ptr %10, align 8
  %36 = load ptr, ptr %10, align 8
  %37 = icmp eq ptr null, %36
  br i1 %37, label %38, label %39

38:                                               ; preds = %26
  call void (i32, ptr, ...) @mprintf(i32 noundef 5, ptr noundef @.str.501)
  br label %137

39:                                               ; preds = %26
  %40 = call ptr @cl_engine_new()
  store ptr %40, ptr %6, align 8
  %41 = icmp ne ptr %40, null
  br i1 %41, label %43, label %42

42:                                               ; preds = %39
  call void (i32, ptr, ...) @mprintf(i32 noundef 5, ptr noundef @.str.502)
  br label %137

43:                                               ; preds = %39
  %44 = load ptr, ptr %6, align 8
  %45 = call i32 @cl_engine_set_num(ptr noundef %44, i32 noundef 10, i64 noundef 1)
  %46 = load ptr, ptr %6, align 8
  %47 = call i32 @cli_initroots(ptr noundef %46, i32 noundef 0)
  %48 = icmp ne i32 %47, 0
  br i1 %48, label %49, label %50

49:                                               ; preds = %43
  call void (i32, ptr, ...) @mprintf(i32 noundef 5, ptr noundef @.str.503)
  br label %137

50:                                               ; preds = %43
  %51 = load ptr, ptr %6, align 8
  %52 = getelementptr inbounds %struct.cl_engine, ptr %51, i32 0, i32 18
  %53 = load ptr, ptr %52, align 8
  %54 = getelementptr inbounds ptr, ptr %53, i64 0
  %55 = load ptr, ptr %54, align 8
  %56 = call i32 @cli_add_content_match_pattern(ptr noundef %55, ptr noundef @.str.113, ptr noundef @.str.114, i8 noundef zeroext 0, i16 noundef zeroext 0, i16 noundef zeroext 0, ptr noundef @.str.115, ptr noundef null, i32 noundef 0)
  %57 = icmp ne i32 %56, 0
  br i1 %57, label %58, label %59

58:                                               ; preds = %50
  call void (i32, ptr, ...) @mprintf(i32 noundef 5, ptr noundef @.str.504)
  br label %137

59:                                               ; preds = %50
  %60 = load ptr, ptr %6, align 8
  %61 = call i32 @cl_engine_compile(ptr noundef %60)
  %62 = icmp ne i32 %61, 0
  br i1 %62, label %63, label %64

63:                                               ; preds = %59
  call void (i32, ptr, ...) @mprintf(i32 noundef 5, ptr noundef @.str.505)
  br label %137

64:                                               ; preds = %59
  %65 = load ptr, ptr %6, align 8
  %66 = call i32 @cl_engine_set_num(ptr noundef %65, i32 noundef 36, i64 noundef 1)
  call void @cl_debug()
  %67 = load ptr, ptr %6, align 8
  %68 = getelementptr inbounds %struct.cli_ctx_tag, ptr %7, i32 0, i32 6
  store ptr %67, ptr %68, align 8
  %69 = call ptr @evidence_new()
  %70 = getelementptr inbounds %struct.cli_ctx_tag, ptr %7, i32 0, i32 3
  store ptr %69, ptr %70, align 8
  %71 = getelementptr inbounds %struct.cli_ctx_tag, ptr %7, i32 0, i32 8
  store ptr %8, ptr %71, align 8
  %72 = getelementptr inbounds %struct.cli_ctx_tag, ptr %7, i32 0, i32 8
  %73 = load ptr, ptr %72, align 8
  %74 = getelementptr inbounds %struct.cl_scan_options, ptr %73, i32 0, i32 1
  store i32 -1, ptr %74, align 4
  %75 = load ptr, ptr %6, align 8
  %76 = getelementptr inbounds %struct.cl_engine, ptr %75, i32 0, i32 27
  %77 = load ptr, ptr %76, align 8
  %78 = getelementptr inbounds %struct.cli_ctx_tag, ptr %7, i32 0, i32 16
  store ptr %77, ptr %78, align 8
  %79 = getelementptr inbounds %struct.cli_ctx_tag, ptr %7, i32 0, i32 6
  %80 = load ptr, ptr %79, align 8
  %81 = getelementptr inbounds %struct.cl_engine, ptr %80, i32 0, i32 14
  %82 = load i32, ptr %81, align 8
  %83 = getelementptr inbounds %struct.cli_ctx_tag, ptr %7, i32 0, i32 12
  store i32 %82, ptr %83, align 8
  %84 = getelementptr inbounds %struct.cli_ctx_tag, ptr %7, i32 0, i32 12
  %85 = load i32, ptr %84, align 8
  %86 = zext i32 %85 to i64
  %87 = call noalias ptr @calloc(i64 noundef 48, i64 noundef %86) #16
  %88 = getelementptr inbounds %struct.cli_ctx_tag, ptr %7, i32 0, i32 11
  store ptr %87, ptr %88, align 8
  %89 = getelementptr inbounds %struct.cli_ctx_tag, ptr %7, i32 0, i32 11
  %90 = load ptr, ptr %89, align 8
  %91 = icmp ne ptr %90, null
  br i1 %91, label %93, label %92

92:                                               ; preds = %64
  br label %137

93:                                               ; preds = %64
  %94 = load ptr, ptr %10, align 8
  %95 = getelementptr inbounds %struct.cli_ctx_tag, ptr %7, i32 0, i32 11
  %96 = load ptr, ptr %95, align 8
  %97 = getelementptr inbounds %struct.cli_ctx_tag, ptr %7, i32 0, i32 13
  %98 = load i32, ptr %97, align 4
  %99 = zext i32 %98 to i64
  %100 = getelementptr inbounds %struct.recursion_level_tag, ptr %96, i64 %99
  %101 = getelementptr inbounds %struct.recursion_level_tag, ptr %100, i32 0, i32 2
  store ptr %94, ptr %101, align 8
  %102 = getelementptr inbounds %struct.cli_ctx_tag, ptr %7, i32 0, i32 11
  %103 = load ptr, ptr %102, align 8
  %104 = getelementptr inbounds %struct.cli_ctx_tag, ptr %7, i32 0, i32 13
  %105 = load i32, ptr %104, align 4
  %106 = zext i32 %105 to i64
  %107 = getelementptr inbounds %struct.recursion_level_tag, ptr %103, i64 %106
  %108 = getelementptr inbounds %struct.recursion_level_tag, ptr %107, i32 0, i32 0
  store i32 0, ptr %108, align 8
  %109 = load ptr, ptr %10, align 8
  %110 = getelementptr inbounds %struct.cl_fmap, ptr %109, i32 0, i32 13
  %111 = load i64, ptr %110, align 8
  %112 = getelementptr inbounds %struct.cli_ctx_tag, ptr %7, i32 0, i32 11
  %113 = load ptr, ptr %112, align 8
  %114 = getelementptr inbounds %struct.cli_ctx_tag, ptr %7, i32 0, i32 13
  %115 = load i32, ptr %114, align 4
  %116 = zext i32 %115 to i64
  %117 = getelementptr inbounds %struct.recursion_level_tag, ptr %113, i64 %116
  %118 = getelementptr inbounds %struct.recursion_level_tag, ptr %117, i32 0, i32 1
  store i64 %111, ptr %118, align 8
  %119 = getelementptr inbounds %struct.cli_ctx_tag, ptr %7, i32 0, i32 11
  %120 = load ptr, ptr %119, align 8
  %121 = getelementptr inbounds %struct.cli_ctx_tag, ptr %7, i32 0, i32 13
  %122 = load i32, ptr %121, align 4
  %123 = zext i32 %122 to i64
  %124 = getelementptr inbounds %struct.recursion_level_tag, ptr %120, i64 %123
  %125 = getelementptr inbounds %struct.recursion_level_tag, ptr %124, i32 0, i32 2
  %126 = load ptr, ptr %125, align 8
  %127 = getelementptr inbounds %struct.cli_ctx_tag, ptr %7, i32 0, i32 14
  store ptr %126, ptr %127, align 8
  %128 = call i32 @cli_check_auth_header(ptr noundef %7, ptr noundef null)
  store i32 %128, ptr %11, align 4
  %129 = load i32, ptr %11, align 4
  switch i32 %129, label %134 [
    i32 33, label %130
    i32 1, label %130
    i32 6, label %131
    i32 22, label %132
    i32 26, label %133
  ]

130:                                              ; preds = %93, %93
  br label %136

131:                                              ; preds = %93
  br label %136

132:                                              ; preds = %93
  call void (i32, ptr, ...) @mprintf(i32 noundef 2, ptr noundef @.str.506)
  br label %136

133:                                              ; preds = %93
  call void (i32, ptr, ...) @mprintf(i32 noundef 5, ptr noundef @.str.507)
  br label %136

134:                                              ; preds = %93
  %135 = load i32, ptr %11, align 4
  call void (i32, ptr, ...) @mprintf(i32 noundef 5, ptr noundef @.str.508, i32 noundef %135)
  br label %136

136:                                              ; preds = %134, %133, %132, %131, %130
  store i32 0, ptr %3, align 4
  br label %137

137:                                              ; preds = %136, %92, %63, %58, %49, %42, %38, %24, %18
  %138 = load ptr, ptr %10, align 8
  %139 = icmp ne ptr null, %138
  br i1 %139, label %140, label %142

140:                                              ; preds = %137
  %141 = load ptr, ptr %10, align 8
  call void @funmap(ptr noundef %141)
  br label %142

142:                                              ; preds = %140, %137
  %143 = getelementptr inbounds %struct.cli_ctx_tag, ptr %7, i32 0, i32 11
  %144 = load ptr, ptr %143, align 8
  %145 = icmp ne ptr null, %144
  br i1 %145, label %146, label %149

146:                                              ; preds = %142
  %147 = getelementptr inbounds %struct.cli_ctx_tag, ptr %7, i32 0, i32 11
  %148 = load ptr, ptr %147, align 8
  call void @free(ptr noundef %148) #11
  br label %149

149:                                              ; preds = %146, %142
  %150 = getelementptr inbounds %struct.cli_ctx_tag, ptr %7, i32 0, i32 3
  %151 = load ptr, ptr %150, align 8
  %152 = icmp ne ptr null, %151
  br i1 %152, label %153, label %156

153:                                              ; preds = %149
  %154 = getelementptr inbounds %struct.cli_ctx_tag, ptr %7, i32 0, i32 3
  %155 = load ptr, ptr %154, align 8
  call void @evidence_free(ptr noundef %155)
  br label %156

156:                                              ; preds = %153, %149
  %157 = load ptr, ptr %6, align 8
  %158 = icmp ne ptr null, %157
  br i1 %158, label %159, label %162

159:                                              ; preds = %156
  %160 = load ptr, ptr %6, align 8
  %161 = call i32 @cl_engine_free(ptr noundef %160)
  br label %162

162:                                              ; preds = %159, %156
  %163 = load i32, ptr %9, align 4
  %164 = icmp ne i32 -1, %163
  br i1 %164, label %165, label %168

165:                                              ; preds = %162
  %166 = load i32, ptr %9, align 4
  %167 = call i32 @close(i32 noundef %166)
  br label %168

168:                                              ; preds = %165, %162
  %169 = load i32, ptr %3, align 4
  ret i32 %169
}