; Function Attrs: nounwind uwtable
define internal fastcc noundef i32 @dumpcerts(ptr noundef %0) unnamed_addr #0 {
  %2 = alloca %struct.stat, align 8
  %3 = alloca %struct.cli_ctx_tag, align 8
  %4 = alloca %struct.cl_scan_options, align 4
  call void @llvm.memset.p0.i64(ptr noundef nonnull align 8 dereferenceable(192) %3, i8 0, i64 192, i1 false)
  call void @llvm.memset.p0.i64(ptr noundef nonnull align 4 dereferenceable(20) %4, i8 0, i64 20, i1 false)
  store ptr null, ptr @logg_file, align 8
  %5 = tail call ptr @optget(ptr noundef %0, ptr noundef nonnull @.str.35) #25
  %6 = getelementptr inbounds i8, ptr %5, i64 16
  %7 = load ptr, ptr %6, align 8
  %.not = icmp eq ptr %7, null
  br i1 %.not, label %8, label %9

8:                                                ; preds = %1
  tail call void (i32, ptr, ...) @mprintf(i32 noundef 5, ptr noundef nonnull @.str.499) #25
  br label %.thread

9:                                                ; preds = %1
  %10 = tail call i32 (ptr, i32, ...) @open(ptr noundef nonnull %7, i32 noundef 0) #25
  %11 = icmp slt i32 %10, 0
  br i1 %11, label %12, label %13

12:                                               ; preds = %9
  tail call void (i32, ptr, ...) @mprintf(i32 noundef 5, ptr noundef nonnull @.str.500, ptr noundef nonnull %7) #25
  br label %.thread

13:                                               ; preds = %9
  %14 = tail call i64 @lseek(i32 noundef %10, i64 noundef 0, i32 noundef 0) #25
  %15 = call i32 @fstat(i32 noundef %10, ptr noundef nonnull %2) #25
  %16 = getelementptr inbounds i8, ptr %2, i64 48
  %17 = load i64, ptr %16, align 8
  %18 = tail call ptr @fmap(i32 noundef %10, i64 noundef 0, i64 noundef %17, ptr noundef nonnull %7) #25
  %19 = icmp eq ptr %18, null
  br i1 %19, label %20, label %21

20:                                               ; preds = %13
  tail call void (i32, ptr, ...) @mprintf(i32 noundef 5, ptr noundef nonnull @.str.501) #25
  br label %.thread

21:                                               ; preds = %13
  %22 = tail call ptr @cl_engine_new() #25
  %.not39 = icmp eq ptr %22, null
  br i1 %.not39, label %23, label %24

23:                                               ; preds = %21
  tail call void (i32, ptr, ...) @mprintf(i32 noundef 5, ptr noundef nonnull @.str.502) #25
  br label %63

24:                                               ; preds = %21
  %25 = tail call i32 @cl_engine_set_num(ptr noundef nonnull %22, i32 noundef 10, i64 noundef 1) #25
  %26 = tail call i32 @cli_initroots(ptr noundef nonnull %22, i32 noundef 0) #25
  %.not40 = icmp eq i32 %26, 0
  br i1 %.not40, label %28, label %27

27:                                               ; preds = %24
  tail call void (i32, ptr, ...) @mprintf(i32 noundef 5, ptr noundef nonnull @.str.503) #25
  br label %63

28:                                               ; preds = %24
  %29 = getelementptr inbounds i8, ptr %22, i64 96
  %30 = load ptr, ptr %29, align 8
  %31 = load ptr, ptr %30, align 8
  %32 = tail call i32 @cli_add_content_match_pattern(ptr noundef %31, ptr noundef nonnull @.str.113, ptr noundef nonnull @.str.114, i8 noundef zeroext 0, i16 noundef zeroext 0, i16 noundef zeroext 0, ptr noundef nonnull @.str.115, ptr noundef null, i32 noundef 0) #25
  %.not41 = icmp eq i32 %32, 0
  br i1 %.not41, label %34, label %33

33:                                               ; preds = %28
  tail call void (i32, ptr, ...) @mprintf(i32 noundef 5, ptr noundef nonnull @.str.504) #25
  br label %63

34:                                               ; preds = %28
  %35 = tail call i32 @cl_engine_compile(ptr noundef nonnull %22) #25
  %.not42 = icmp eq i32 %35, 0
  br i1 %.not42, label %37, label %36

36:                                               ; preds = %34
  tail call void (i32, ptr, ...) @mprintf(i32 noundef 5, ptr noundef nonnull @.str.505) #25
  br label %63

37:                                               ; preds = %34
  %38 = tail call i32 @cl_engine_set_num(ptr noundef nonnull %22, i32 noundef 36, i64 noundef 1) #25
  tail call void @cl_debug() #25
  %39 = getelementptr inbounds i8, ptr %3, i64 48
  store ptr %22, ptr %39, align 8
  %40 = tail call ptr @evidence_new() #25
  %41 = getelementptr inbounds i8, ptr %3, i64 24
  store ptr %40, ptr %41, align 8
  %42 = getelementptr inbounds i8, ptr %3, i64 64
  store ptr %4, ptr %42, align 8
  %43 = getelementptr inbounds i8, ptr %4, i64 4
  store i32 -1, ptr %43, align 4
  %44 = getelementptr inbounds i8, ptr %22, i64 168
  %45 = load ptr, ptr %44, align 8
  %46 = getelementptr inbounds i8, ptr %3, i64 120
  store ptr %45, ptr %46, align 8
  %47 = getelementptr inbounds i8, ptr %22, i64 80
  %48 = load i32, ptr %47, align 8
  %49 = getelementptr inbounds i8, ptr %3, i64 88
  store i32 %48, ptr %49, align 8
  %50 = zext i32 %48 to i64
  %51 = call noalias ptr @calloc(i64 noundef 48, i64 noundef %50) #28
  %52 = getelementptr inbounds i8, ptr %3, i64 80
  store ptr %51, ptr %52, align 8
  %.not43 = icmp eq ptr %51, null
  br i1 %.not43, label %63, label %53

53:                                               ; preds = %37
  %54 = getelementptr inbounds i8, ptr %51, i64 16
  store ptr %18, ptr %54, align 8
  %55 = getelementptr inbounds i8, ptr %18, i64 88
  %56 = load i64, ptr %55, align 8
  %57 = getelementptr inbounds i8, ptr %51, i64 8
  store i64 %56, ptr %57, align 8
  %58 = getelementptr inbounds i8, ptr %3, i64 96
  store ptr %18, ptr %58, align 8
  %59 = call i32 @cli_check_auth_header(ptr noundef nonnull %3, ptr noundef null) #25
  switch i32 %59, label %62 [
    i32 33, label %63
    i32 1, label %63
    i32 6, label %63
    i32 22, label %60
    i32 26, label %61
  ]

60:                                               ; preds = %53
  call void (i32, ptr, ...) @mprintf(i32 noundef 2, ptr noundef nonnull @.str.506) #25
  br label %63

61:                                               ; preds = %53
  call void (i32, ptr, ...) @mprintf(i32 noundef 5, ptr noundef nonnull @.str.507) #25
  br label %63

62:                                               ; preds = %53
  call void (i32, ptr, ...) @mprintf(i32 noundef 5, ptr noundef nonnull @.str.508, i32 noundef %59) #25
  br label %63

63:                                               ; preds = %60, %61, %62, %53, %53, %53, %23, %37, %36, %33, %27
  %.0.ph = phi i32 [ 0, %60 ], [ 0, %61 ], [ 0, %62 ], [ 0, %53 ], [ 0, %53 ], [ 0, %53 ], [ -1, %23 ], [ -1, %37 ], [ -1, %36 ], [ -1, %33 ], [ -1, %27 ]
  %64 = getelementptr inbounds i8, ptr %18, i64 96
  %65 = load ptr, ptr %64, align 8
  call void %65(ptr noundef nonnull %18) #25
  %.phi.trans.insert = getelementptr inbounds i8, ptr %3, i64 80
  %.pre = load ptr, ptr %.phi.trans.insert, align 8
  %.not45 = icmp eq ptr %.pre, null
  br i1 %.not45, label %.thread, label %66

66:                                               ; preds = %63
  call void @free(ptr noundef nonnull %.pre) #25
  br label %.thread

.thread:                                          ; preds = %8, %20, %12, %66, %63
  %.0295567 = phi ptr [ %22, %66 ], [ %22, %63 ], [ null, %12 ], [ null, %20 ], [ null, %8 ]
  %.0285766 = phi i32 [ %10, %66 ], [ %10, %63 ], [ %10, %12 ], [ %10, %20 ], [ -1, %8 ]
  %.06065 = phi i32 [ %.0.ph, %66 ], [ %.0.ph, %63 ], [ -1, %12 ], [ -1, %20 ], [ -1, %8 ]
  %67 = getelementptr inbounds i8, ptr %3, i64 24
  %68 = load ptr, ptr %67, align 8
  %.not46 = icmp eq ptr %68, null
  br i1 %.not46, label %70, label %69

69:                                               ; preds = %.thread
  call void @evidence_free(ptr noundef nonnull %68) #25
  br label %70

70:                                               ; preds = %69, %.thread
  %.not47 = icmp eq ptr %.0295567, null
  br i1 %.not47, label %73, label %71

71:                                               ; preds = %70
  %72 = call i32 @cl_engine_free(ptr noundef nonnull %.0295567) #25
  br label %73

73:                                               ; preds = %71, %70
  %.not48 = icmp eq i32 %.0285766, -1
  br i1 %.not48, label %76, label %74

74:                                               ; preds = %73
  %75 = call i32 @close(i32 noundef %.0285766) #25
  br label %76

76:                                               ; preds = %74, %73
  ret i32 %.06065
}